target datalayout = "e-m:e-p270:32:32-p271:32:32-p272:64:64-i64:64-i128:128-f80:128-n8:16:32:64-S128"
target triple = "x86_64-pc-linux-gnu"

%struct.H5D_chk_idx_info_t = type { ptr, ptr, ptr, ptr }
%struct.H5O_layout_chunk_t = type { i32, i8, i32, [33 x i32], i32, i32, i64, i64, [33 x i64], [33 x i64], [33 x i64], [33 x i64], %union.anon.0 }
%union.anon.0 = type { %struct.H5O_layout_chunk_earray_t }
%struct.H5O_layout_chunk_earray_t = type { %struct.anon.1, i32, [33 x i32], [33 x i64], [33 x i64] }
%struct.anon.1 = type { i8, i8, i8, i8, i8 }
%struct.H5O_storage_chunk_t = type { i32, i64, ptr, %union.anon.3 }
%union.anon.3 = type { %struct.H5O_storage_chunk_btree_t }
%struct.H5O_storage_chunk_btree_t = type { i64, ptr }
%struct.H5O_storage_chunk_single_filt_t = type { i32, i32 }
%struct.H5D_chunk_ud_t = type { %struct.H5D_chunk_common_ud_t, i32, %struct.H5F_block_t, i32, i8, i64 }
%struct.H5D_chunk_common_ud_t = type { ptr, ptr, ptr }
%struct.H5F_block_t = type { i64, i64 }

@H5D_init_g = external global i8, align 1
@H5_libterm_g = external global i8, align 1

; Function Attrs: nounwind uwtable
define internal i32 @H5D__single_idx_get_addr(ptr noundef %0, ptr noundef %1) #0 {
  %3 = alloca ptr, align 8
  %4 = alloca ptr, align 8
  store ptr %0, ptr %3, align 8, !tbaa !3
  store ptr %1, ptr %4, align 8, !tbaa !38
  %5 = load i8, ptr @H5D_init_g, align 1, !tbaa !12, !range !14, !noundef !15
  %6 = trunc i8 %5 to i1
  br i1 %6, label %11, label %7

7:                                                ; preds = %2
  %8 = load i8, ptr @H5_libterm_g, align 1, !tbaa !12, !range !14, !noundef !15
  %9 = trunc i8 %8 to i1
  %10 = xor i1 %9, true
  br label %11

11:                                               ; preds = %7, %2
  %12 = phi i1 [ true, %2 ], [ %10, %7 ]
  %13 = xor i1 %12, true
  %14 = xor i1 %13, true
  %15 = zext i1 %14 to i32
  %16 = sext i32 %15 to i64
  %17 = call i64 @llvm.expect.i64(i64 %16, i64 1)
  %18 = icmp ne i64 %17, 0
  br i1 %18, label %19, label %78

19:                                               ; preds = %11
  %20 = load ptr, ptr %3, align 8, !tbaa !3
  %21 = getelementptr inbounds nuw %struct.H5D_chk_idx_info_t, ptr %20, i32 0, i32 3
  %22 = load ptr, ptr %21, align 8, !tbaa !30
  %23 = getelementptr inbounds nuw %struct.H5O_storage_chunk_t, ptr %22, i32 0, i32 1
  %24 = load i64, ptr %23, align 8, !tbaa !31
  %25 = load ptr, ptr %4, align 8, !tbaa !38
  %26 = getelementptr inbounds nuw %struct.H5D_chunk_ud_t, ptr %25, i32 0, i32 2
  %27 = getelementptr inbounds nuw %struct.H5F_block_t, ptr %26, i32 0, i32 0
  store i64 %24, ptr %27, align 8, !tbaa !43
  %28 = load ptr, ptr %3, align 8, !tbaa !3
  %29 = getelementptr inbounds nuw %struct.H5D_chk_idx_info_t, ptr %28, i32 0, i32 2
  %30 = load ptr, ptr %29, align 8, !tbaa !27
  %31 = getelementptr inbounds nuw %struct.H5O_layout_chunk_t, ptr %30, i32 0, i32 1
  %32 = load i8, ptr %31, align 4, !tbaa !28
  %33 = zext i8 %32 to i32
  %34 = and i32 %33, 2
  %35 = icmp ne i32 %34, 0
  br i1 %35, label %36, label %55

36:                                               ; preds = %19
  %37 = load ptr, ptr %3, align 8, !tbaa !3
  %38 = getelementptr inbounds nuw %struct.H5D_chk_idx_info_t, ptr %37, i32 0, i32 3
  %39 = load ptr, ptr %38, align 8, !tbaa !30
  %40 = getelementptr inbounds nuw %struct.H5O_storage_chunk_t, ptr %39, i32 0, i32 3
  %41 = getelementptr inbounds nuw %struct.H5O_storage_chunk_single_filt_t, ptr %40, i32 0, i32 0
  %42 = load i32, ptr %41, align 8, !tbaa !34
  %43 = zext i32 %42 to i64
  %44 = load ptr, ptr %4, align 8, !tbaa !38
  %45 = getelementptr inbounds nuw %struct.H5D_chunk_ud_t, ptr %44, i32 0, i32 2
  %46 = getelementptr inbounds nuw %struct.H5F_block_t, ptr %45, i32 0, i32 1
  store i64 %43, ptr %46, align 8, !tbaa !48
  %47 = load ptr, ptr %3, align 8, !tbaa !3
  %48 = getelementptr inbounds nuw %struct.H5D_chk_idx_info_t, ptr %47, i32 0, i32 3
  %49 = load ptr, ptr %48, align 8, !tbaa !30
  %50 = getelementptr inbounds nuw %struct.H5O_storage_chunk_t, ptr %49, i32 0, i32 3
  %51 = getelementptr inbounds nuw %struct.H5O_storage_chunk_single_filt_t, ptr %50, i32 0, i32 1
  %52 = load i32, ptr %51, align 4, !tbaa !34
  %53 = load ptr, ptr %4, align 8, !tbaa !38
  %54 = getelementptr inbounds nuw %struct.H5D_chunk_ud_t, ptr %53, i32 0, i32 3
  store i32 %52, ptr %54, align 8, !tbaa !49
  br label %67

55:                                               ; preds = %19
  %56 = load ptr, ptr %3, align 8, !tbaa !3
  %57 = getelementptr inbounds nuw %struct.H5D_chk_idx_info_t, ptr %56, i32 0, i32 2
  %58 = load ptr, ptr %57, align 8, !tbaa !27
  %59 = getelementptr inbounds nuw %struct.H5O_layout_chunk_t, ptr %58, i32 0, i32 5
  %60 = load i32, ptr %59, align 4, !tbaa !78
  %61 = zext i32 %60 to i64
  %62 = load ptr, ptr %4, align 8, !tbaa !38
  %63 = getelementptr inbounds nuw %struct.H5D_chunk_ud_t, ptr %62, i32 0, i32 2
  %64 = getelementptr inbounds nuw %struct.H5F_block_t, ptr %63, i32 0, i32 1
  store i64 %61, ptr %64, align 8, !tbaa !48
  %65 = load ptr, ptr %4, align 8, !tbaa !38
  %66 = getelementptr inbounds nuw %struct.H5D_chunk_ud_t, ptr %65, i32 0, i32 3
  store i32 0, ptr %66, align 8, !tbaa !49
  br label %67

67:                                               ; preds = %55, %36
  %68 = load ptr, ptr %4, align 8, !tbaa !38
  %69 = getelementptr inbounds nuw %struct.H5D_chunk_ud_t, ptr %68, i32 0, i32 2
  %70 = getelementptr inbounds nuw %struct.H5F_block_t, ptr %69, i32 0, i32 0
  %71 = load i64, ptr %70, align 8, !tbaa !43
  %72 = icmp ne i64 %71, -1
  br i1 %72, label %77, label %73

73:                                               ; preds = %67
  %74 = load ptr, ptr %4, align 8, !tbaa !38
  %75 = getelementptr inbounds nuw %struct.H5D_chunk_ud_t, ptr %74, i32 0, i32 2
  %76 = getelementptr inbounds nuw %struct.H5F_block_t, ptr %75, i32 0, i32 1
  store i64 0, ptr %76, align 8, !tbaa !48
  br label %77

77:                                               ; preds = %73, %67
  br label %78

78:                                               ; preds = %77, %11
  ret i32 0
}