; Function Attrs: mustprogress nofree norecurse nosync nounwind willreturn memory(read, argmem: readwrite, inaccessiblemem: none) uwtable
define internal noundef i32 @H5D__single_idx_get_addr(ptr noundef readonly captures(none) %0, ptr noundef writeonly captures(none) %1) #5 {
  %3 = load i8, ptr @H5D_init_g, align 1, !tbaa !3, !range !7, !noundef !8
  %4 = trunc nuw i8 %3 to i1
  %5 = load i8, ptr @H5_libterm_g, align 1, !range !7
  %6 = trunc nuw i8 %5 to i1
  %7 = xor i1 %6, true
  %8 = select i1 %4, i1 true, i1 %7
  br i1 %8, label %9, label %35, !prof !9

9:                                                ; preds = %2
  %10 = getelementptr inbounds nuw i8, ptr %0, i64 24
  %11 = load ptr, ptr %10, align 8, !tbaa !26
  %12 = getelementptr inbounds nuw i8, ptr %11, i64 8
  %13 = load i64, ptr %12, align 8, !tbaa !27
  %14 = getelementptr inbounds nuw i8, ptr %1, i64 32
  store i64 %13, ptr %14, align 8, !tbaa !31
  %15 = getelementptr inbounds nuw i8, ptr %0, i64 16
  %16 = load ptr, ptr %15, align 8, !tbaa !23
  %17 = getelementptr inbounds nuw i8, ptr %16, i64 4
  %18 = load i8, ptr %17, align 4, !tbaa !24
  %19 = and i8 %18, 2
  %.not = icmp eq i8 %19, 0
  %20 = getelementptr inbounds nuw i8, ptr %1, i64 40
  br i1 %.not, label %27, label %21

21:                                               ; preds = %9
  %22 = getelementptr inbounds nuw i8, ptr %11, i64 24
  %23 = load i32, ptr %22, align 8, !tbaa !30
  %24 = zext i32 %23 to i64
  store i64 %24, ptr %20, align 8, !tbaa !36
  %25 = getelementptr inbounds nuw i8, ptr %11, i64 28
  %26 = load i32, ptr %25, align 4, !tbaa !30
  br label %31

27:                                               ; preds = %9
  %28 = getelementptr inbounds nuw i8, ptr %16, i64 148
  %29 = load i32, ptr %28, align 4, !tbaa !68
  %30 = zext i32 %29 to i64
  store i64 %30, ptr %20, align 8, !tbaa !36
  br label %31

31:                                               ; preds = %27, %21
  %.sink = phi i32 [ 0, %27 ], [ %26, %21 ]
  %32 = getelementptr inbounds nuw i8, ptr %1, i64 48
  store i32 %.sink, ptr %32, align 8, !tbaa !37
  %.not12 = icmp eq i64 %13, -1
  br i1 %.not12, label %33, label %35

33:                                               ; preds = %31
  %34 = getelementptr inbounds nuw i8, ptr %1, i64 40
  store i64 0, ptr %34, align 8, !tbaa !36
  br label %35

35:                                               ; preds = %31, %33, %2
  ret i32 0
}